target datalayout = "e-m:e-p270:32:32-p271:32:32-p272:64:64-i64:64-i128:128-f80:128-n8:16:32:64-S128"
target triple = "x86_64-pc-linux-gnu"

%"class.std::__weak_count" = type { ptr }
%"class.std::__shared_count" = type { ptr }
%"class.duckdb::shared_ptr.78" = type { %"class.std::shared_ptr.79" }
%"class.std::shared_ptr.79" = type { %"class.std::__shared_ptr.80" }
%"class.std::__shared_ptr.80" = type { ptr, %"class.std::__shared_count" }
%"class.duckdb::ExecutorTask" = type { %"class.duckdb::Task", ptr, %"class.duckdb::shared_ptr.338", %"class.duckdb::unique_ptr.346", %"class.duckdb::optional_ptr.355" }
%"class.duckdb::Task" = type { ptr, %"class.duckdb::enable_shared_from_this.342" }
%"class.duckdb::enable_shared_from_this.342" = type { %"class.duckdb::weak_ptr.343" }
%"class.duckdb::weak_ptr.343" = type { %"class.std::weak_ptr.344" }
%"class.std::weak_ptr.344" = type { %"class.std::__weak_ptr.345" }
%"class.std::__weak_ptr.345" = type { ptr, %"class.std::__weak_count" }
%"class.duckdb::shared_ptr.338" = type { %"class.std::shared_ptr.339" }
%"class.std::shared_ptr.339" = type { %"class.std::__shared_ptr.340" }
%"class.std::__shared_ptr.340" = type { ptr, %"class.std::__shared_count" }
%"class.duckdb::unique_ptr.346" = type { %"class.std::unique_ptr.347" }
%"class.std::unique_ptr.347" = type { %"struct.std::__uniq_ptr_data.348" }
%"struct.std::__uniq_ptr_data.348" = type { %"class.std::__uniq_ptr_impl.349" }
%"class.std::__uniq_ptr_impl.349" = type { %"class.std::tuple.350" }
%"class.std::tuple.350" = type { %"struct.std::_Tuple_impl.351" }
%"struct.std::_Tuple_impl.351" = type { %"struct.std::_Head_base.354" }
%"struct.std::_Head_base.354" = type { ptr }
%"class.duckdb::optional_ptr.355" = type { ptr }

; Function Attrs: mustprogress uwtable
define void @_ZN6duckdb12ExecutorTask10DescheduleEv(ptr noundef nonnull align 8 dereferenceable(64) %0) unnamed_addr #0 align 2 personality ptr @__gxx_personality_v0 {
  %2 = alloca ptr, align 8
  %3 = alloca %"class.duckdb::shared_ptr.78", align 8
  %4 = alloca ptr, align 8
  %5 = alloca i32, align 4
  store ptr %0, ptr %2, align 8, !tbaa !282
  %6 = load ptr, ptr %2, align 8
  call void @llvm.lifetime.start.p0(i64 16, ptr %3) #24
  %7 = getelementptr inbounds i8, ptr %6, i64 8
  call void @_ZN6duckdb23enable_shared_from_thisINS_4TaskEE16shared_from_thisEv(ptr dead_on_unwind writable sret(%"class.duckdb::shared_ptr.78") align 8 %3, ptr noundef nonnull align 8 dereferenceable(16) %7)
  %8 = getelementptr inbounds nuw %"class.duckdb::ExecutorTask", ptr %6, i32 0, i32 1
  %9 = load ptr, ptr %8, align 8, !tbaa !285
  invoke void @_ZN6duckdb8Executor18AddToBeRescheduledERNS_10shared_ptrINS_4TaskELb1EEE(ptr noundef nonnull align 8 dereferenceable(424) %9, ptr noundef nonnull align 8 dereferenceable(16) %3)
          to label %10 unwind label %11

10:                                               ; preds = %1
  call void @_ZN6duckdb10shared_ptrINS_4TaskELb1EED2Ev(ptr noundef nonnull align 8 dereferenceable(16) %3) #24
  call void @llvm.lifetime.end.p0(i64 16, ptr %3) #24
  ret void

11:                                               ; preds = %1
  %12 = landingpad { ptr, i32 }
          cleanup
  %13 = extractvalue { ptr, i32 } %12, 0
  store ptr %13, ptr %4, align 8
  %14 = extractvalue { ptr, i32 } %12, 1
  store i32 %14, ptr %5, align 4
  call void @_ZN6duckdb10shared_ptrINS_4TaskELb1EED2Ev(ptr noundef nonnull align 8 dereferenceable(16) %3) #24
  call void @llvm.lifetime.end.p0(i64 16, ptr %3) #24
  br label %15

15:                                               ; preds = %11
  %16 = load ptr, ptr %4, align 8
  %17 = load i32, ptr %5, align 4
  %18 = insertvalue { ptr, i32 } poison, ptr %16, 0
  %19 = insertvalue { ptr, i32 } %18, i32 %17, 1
  resume { ptr, i32 } %19
}